; Function Attrs: nounwind uwtable
define internal zeroext i1 @HIDAPI_JoystickRumbleTriggers(ptr noundef %0, i16 noundef zeroext %1, i16 noundef zeroext %2) #0 {
  tail call void @SDL_AssertJoysticksLocked() #9
  %.not.i = icmp eq ptr %0, null
  br i1 %.not.i, label %16, label %4

4:                                                ; preds = %3
  %5 = getelementptr inbounds nuw i8, ptr %0, i64 328
  %6 = load ptr, ptr %5, align 8
  %.not9.i = icmp eq ptr %6, null
  br i1 %.not9.i, label %16, label %7

7:                                                ; preds = %4
  %8 = load ptr, ptr %6, align 8
  %9 = tail call zeroext i1 @SDL_ObjectValid(ptr noundef %8, i32 noundef 9) #9
  br i1 %9, label %10, label %16

10:                                               ; preds = %7
  %11 = getelementptr inbounds nuw i8, ptr %8, i64 104
  %12 = load ptr, ptr %11, align 8
  %.not10.i = icmp eq ptr %12, null
  br i1 %.not10.i, label %16, label %HIDAPI_GetJoystickDevice.exit

HIDAPI_GetJoystickDevice.exit:                    ; preds = %10
  %13 = getelementptr inbounds nuw i8, ptr %12, i64 96
  %14 = load ptr, ptr %13, align 8
  %15 = tail call zeroext i1 %14(ptr noundef nonnull %8, ptr noundef nonnull %0, i16 noundef zeroext %1, i16 noundef zeroext %2) #9
  br label %18

16:                                               ; preds = %10, %7, %4, %3
  %17 = tail call zeroext i1 (ptr, ...) @SDL_SetError_REAL(ptr noundef nonnull @.str.32) #9
  br label %18

18:                                               ; preds = %16, %HIDAPI_GetJoystickDevice.exit
  %.0.in = phi i1 [ %15, %HIDAPI_GetJoystickDevice.exit ], [ %17, %16 ]
  ret i1 %.0.in
}